target datalayout = "e-m:e-p270:32:32-p271:32:32-p272:64:64-i64:64-i128:128-f80:128-n8:16:32:64-S128"
target triple = "x86_64-pc-linux-gnu"

%"class.osgeo::proj::util::BaseObject" = type { ptr, %"class.std::unique_ptr.53" }
%"class.std::unique_ptr.53" = type { %"struct.std::__uniq_ptr_data.54" }
%"struct.std::__uniq_ptr_data.54" = type { %"class.std::__uniq_ptr_impl.55" }
%"class.std::__uniq_ptr_impl.55" = type { %"class.std::tuple.56" }
%"class.std::tuple.56" = type { %"struct.std::_Tuple_impl.57" }
%"struct.std::_Tuple_impl.57" = type { %"struct.std::_Head_base.60" }
%"struct.std::_Head_base.60" = type { ptr }
%"class.std::__shared_ptr.3" = type { ptr, %"class.std::__shared_count" }
%"class.std::__shared_count" = type { ptr }
%"class.osgeo::proj::common::Measure" = type { %"class.osgeo::proj::util::BaseObject", %"class.std::unique_ptr.240" }
%"class.std::unique_ptr.240" = type { %"struct.std::__uniq_ptr_data.241" }
%"struct.std::__uniq_ptr_data.241" = type { %"class.std::__uniq_ptr_impl.242" }
%"class.std::__uniq_ptr_impl.242" = type { %"class.std::tuple.243" }
%"class.std::tuple.243" = type { %"struct.std::_Tuple_impl.244" }
%"struct.std::_Tuple_impl.244" = type { %"struct.std::_Head_base.247" }
%"struct.std::_Head_base.247" = type { ptr }
%"class.osgeo::proj::common::Angle" = type { %"class.osgeo::proj::common::Measure" }
%"class.__gnu_cxx::__normal_iterator.640" = type { ptr }
%"struct.std::_Vector_base.616" = type { %"struct.std::_Vector_base<dropbox::oxygen::nn<std::shared_ptr<osgeo::proj::metadata::GeographicExtent>>, std::allocator<dropbox::oxygen::nn<std::shared_ptr<osgeo::proj::metadata::GeographicExtent>>>>::_Vector_impl" }
%"struct.std::_Vector_base<dropbox::oxygen::nn<std::shared_ptr<osgeo::proj::metadata::GeographicExtent>>, std::allocator<dropbox::oxygen::nn<std::shared_ptr<osgeo::proj::metadata::GeographicExtent>>>>::_Vector_impl" = type { %"struct.std::_Vector_base<dropbox::oxygen::nn<std::shared_ptr<osgeo::proj::metadata::GeographicExtent>>, std::allocator<dropbox::oxygen::nn<std::shared_ptr<osgeo::proj::metadata::GeographicExtent>>>>::_Vector_impl_data" }
%"struct.std::_Vector_base<dropbox::oxygen::nn<std::shared_ptr<osgeo::proj::metadata::GeographicExtent>>, std::allocator<dropbox::oxygen::nn<std::shared_ptr<osgeo::proj::metadata::GeographicExtent>>>>::_Vector_impl_data" = type { ptr, ptr, ptr }
%"class.dropbox::oxygen::nn.620" = type { %"class.std::shared_ptr.621" }
%"class.std::shared_ptr.621" = type { %"class.std::__shared_ptr.622" }
%"class.std::__shared_ptr.622" = type { ptr, %"class.std::__shared_count" }

@_ZTIN5osgeo4proj8metadata16GeographicExtentE = external constant ptr
@_ZTIN5osgeo4proj8metadata21GeographicBoundingBoxE = external constant ptr

; Function Attrs: mustprogress nounwind uwtable
define linkonce_odr hidden noundef nonnull align 8 dereferenceable(8) ptr @_ZNK9__gnu_cxx17__normal_iteratorIPKN7dropbox6oxygen2nnISt10shared_ptrIN5osgeo4proj8metadata16GeographicExtentEEEESt6vectorISA_SaISA_EEE4baseEv(ptr noundef nonnull align 8 dereferenceable(8) %0) #0 comdat align 2 {
  %2 = alloca ptr, align 8
  store ptr %0, ptr %2, align 8, !tbaa !899
  %3 = load ptr, ptr %2, align 8
  %4 = getelementptr inbounds nuw %"class.__gnu_cxx::__normal_iterator.640", ptr %3, i32 0, i32 0
  ret ptr %4
}

; Function Attrs: mustprogress nounwind uwtable
define linkonce_odr hidden void @_ZN9__gnu_cxx17__normal_iteratorIPKN7dropbox6oxygen2nnISt10shared_ptrIN5osgeo4proj8metadata16GeographicExtentEEEESt6vectorISA_SaISA_EEEC2ERKSC_(ptr noundef nonnull align 8 dereferenceable(8) %0, ptr noundef nonnull align 8 dereferenceable(8) %1) unnamed_addr #0 comdat align 2 {
  %3 = alloca ptr, align 8
  %4 = alloca ptr, align 8
  store ptr %0, ptr %3, align 8, !tbaa !899
  store ptr %1, ptr %4, align 8, !tbaa !901
  %5 = load ptr, ptr %3, align 8
  %6 = getelementptr inbounds nuw %"class.__gnu_cxx::__normal_iterator.640", ptr %5, i32 0, i32 0
  %7 = load ptr, ptr %4, align 8, !tbaa !901
  %8 = load ptr, ptr %7, align 8, !tbaa !898
  store ptr %8, ptr %6, align 8, !tbaa !903
  ret void
}

; Function Attrs: mustprogress nounwind uwtable
define linkonce_odr noundef ptr @_ZNKSt12__shared_ptrIN5osgeo4proj8metadata6ExtentELN9__gnu_cxx12_Lock_policyE2EE3getEv(ptr noundef nonnull align 8 dereferenceable(16) %0) #0 comdat align 2 {
  %2 = alloca ptr, align 8
  store ptr %0, ptr %2, align 8, !tbaa !442
  %3 = load ptr, ptr %2, align 8
  %4 = getelementptr inbounds nuw %"class.std::__shared_ptr.3", ptr %3, i32 0, i32 0
  %5 = load ptr, ptr %4, align 8, !tbaa !444
  ret ptr %5
}

; Function Attrs: mustprogress nounwind uwtable
define linkonce_odr noundef ptr @_ZNKSt12__shared_ptrIN5osgeo4proj8metadata16GeographicExtentELN9__gnu_cxx12_Lock_policyE2EE3getEv(ptr noundef nonnull align 8 dereferenceable(16) %0) #0 comdat align 2 {
  %2 = alloca ptr, align 8
  store ptr %0, ptr %2, align 8, !tbaa !905
  %3 = load ptr, ptr %2, align 8
  %4 = getelementptr inbounds nuw %"class.std::__shared_ptr.622", ptr %3, i32 0, i32 0
  %5 = load ptr, ptr %4, align 8, !tbaa !907
  ret ptr %5
}

; Function Attrs: inlinehint mustprogress nounwind uwtable
define linkonce_odr hidden noundef zeroext i1 @_ZN9__gnu_cxxeqIPKN7dropbox6oxygen2nnISt10shared_ptrIN5osgeo4proj8metadata16GeographicExtentEEEESt6vectorISA_SaISA_EEEEbRKNS_17__normal_iteratorIT_T0_EESL_(ptr noundef nonnull align 8 dereferenceable(8) %0, ptr noundef nonnull align 8 dereferenceable(8) %1) #5 comdat {
  %3 = alloca ptr, align 8
  %4 = alloca ptr, align 8
  store ptr %0, ptr %3, align 8, !tbaa !899
  store ptr %1, ptr %4, align 8, !tbaa !899
  %5 = load ptr, ptr %3, align 8, !tbaa !899
  %6 = call noundef nonnull align 8 dereferenceable(8) ptr @_ZNK9__gnu_cxx17__normal_iteratorIPKN7dropbox6oxygen2nnISt10shared_ptrIN5osgeo4proj8metadata16GeographicExtentEEEESt6vectorISA_SaISA_EEE4baseEv(ptr noundef nonnull align 8 dereferenceable(8) %5) #25
  %7 = load ptr, ptr %6, align 8, !tbaa !898
  %8 = load ptr, ptr %4, align 8, !tbaa !899
  %9 = call noundef nonnull align 8 dereferenceable(8) ptr @_ZNK9__gnu_cxx17__normal_iteratorIPKN7dropbox6oxygen2nnISt10shared_ptrIN5osgeo4proj8metadata16GeographicExtentEEEESt6vectorISA_SaISA_EEE4baseEv(ptr noundef nonnull align 8 dereferenceable(8) %8) #25
  %10 = load ptr, ptr %9, align 8, !tbaa !898
  %11 = icmp eq ptr %7, %10
  ret i1 %11
}

; Function Attrs: mustprogress nounwind uwtable
define linkonce_odr hidden ptr @_ZNKSt6vectorIN7dropbox6oxygen2nnISt10shared_ptrIN5osgeo4proj8metadata16GeographicExtentEEEESaIS9_EE3endEv(ptr noundef nonnull align 8 dereferenceable(24) %0) #0 comdat align 2 {
  %2 = alloca %"class.__gnu_cxx::__normal_iterator.640", align 8
  %3 = alloca ptr, align 8
  store ptr %0, ptr %3, align 8, !tbaa !445
  %4 = load ptr, ptr %3, align 8
  %5 = getelementptr inbounds nuw %"struct.std::_Vector_base.616", ptr %4, i32 0, i32 0
  %6 = getelementptr inbounds nuw %"struct.std::_Vector_base<dropbox::oxygen::nn<std::shared_ptr<osgeo::proj::metadata::GeographicExtent>>, std::allocator<dropbox::oxygen::nn<std::shared_ptr<osgeo::proj::metadata::GeographicExtent>>>>::_Vector_impl_data", ptr %5, i32 0, i32 1
  call void @_ZN9__gnu_cxx17__normal_iteratorIPKN7dropbox6oxygen2nnISt10shared_ptrIN5osgeo4proj8metadata16GeographicExtentEEEESt6vectorISA_SaISA_EEEC2ERKSC_(ptr noundef nonnull align 8 dereferenceable(8) %2, ptr noundef nonnull align 8 dereferenceable(8) %6) #25
  %7 = getelementptr inbounds nuw %"class.__gnu_cxx::__normal_iterator.640", ptr %2, i32 0, i32 0
  %8 = load ptr, ptr %7, align 8
  ret ptr %8
}

; Function Attrs: mustprogress nounwind uwtable
define linkonce_odr hidden ptr @_ZNKSt6vectorIN7dropbox6oxygen2nnISt10shared_ptrIN5osgeo4proj8metadata16GeographicExtentEEEESaIS9_EE5beginEv(ptr noundef nonnull align 8 dereferenceable(24) %0) #0 comdat align 2 {
  %2 = alloca %"class.__gnu_cxx::__normal_iterator.640", align 8
  %3 = alloca ptr, align 8
  store ptr %0, ptr %3, align 8, !tbaa !445
  %4 = load ptr, ptr %3, align 8
  %5 = getelementptr inbounds nuw %"struct.std::_Vector_base.616", ptr %4, i32 0, i32 0
  %6 = getelementptr inbounds nuw %"struct.std::_Vector_base<dropbox::oxygen::nn<std::shared_ptr<osgeo::proj::metadata::GeographicExtent>>, std::allocator<dropbox::oxygen::nn<std::shared_ptr<osgeo::proj::metadata::GeographicExtent>>>>::_Vector_impl_data", ptr %5, i32 0, i32 0
  call void @_ZN9__gnu_cxx17__normal_iteratorIPKN7dropbox6oxygen2nnISt10shared_ptrIN5osgeo4proj8metadata16GeographicExtentEEEESt6vectorISA_SaISA_EEEC2ERKSC_(ptr noundef nonnull align 8 dereferenceable(8) %2, ptr noundef nonnull align 8 dereferenceable(8) %6) #25
  %7 = getelementptr inbounds nuw %"class.__gnu_cxx::__normal_iterator.640", ptr %2, i32 0, i32 0
  %8 = load ptr, ptr %7, align 8
  ret ptr %8
}

; Function Attrs: mustprogress nounwind uwtable
define linkonce_odr noundef ptr @_ZNKSt19__shared_ptr_accessIN5osgeo4proj8metadata6ExtentELN9__gnu_cxx12_Lock_policyE2ELb0ELb0EE6_M_getEv(ptr noundef nonnull align 1 dereferenceable(1) %0) #0 comdat align 2 {
  %2 = alloca ptr, align 8
  store ptr %0, ptr %2, align 8, !tbaa !449
  %3 = load ptr, ptr %2, align 8
  %4 = call noundef ptr @_ZNKSt12__shared_ptrIN5osgeo4proj8metadata6ExtentELN9__gnu_cxx12_Lock_policyE2EE3getEv(ptr noundef nonnull align 8 dereferenceable(16) %3) #25
  ret ptr %4
}

; Function Attrs: mustprogress nounwind uwtable
define linkonce_odr hidden noundef ptr @_ZNK7dropbox6oxygen2nnISt10shared_ptrIN5osgeo4proj8metadata16GeographicExtentEEE3getIS7_EEPS6_v(ptr noundef nonnull align 8 dereferenceable(16) %0) #0 comdat align 2 {
  %2 = alloca ptr, align 8
  store ptr %0, ptr %2, align 8, !tbaa !898
  %3 = load ptr, ptr %2, align 8
  %4 = getelementptr inbounds nuw %"class.dropbox::oxygen::nn.620", ptr %3, i32 0, i32 0
  %5 = call noundef ptr @_ZNKSt12__shared_ptrIN5osgeo4proj8metadata16GeographicExtentELN9__gnu_cxx12_Lock_policyE2EE3getEv(ptr noundef nonnull align 8 dereferenceable(16) %4) #25
  ret ptr %5
}

; Function Attrs: mustprogress nounwind uwtable
define linkonce_odr hidden noundef nonnull align 8 dereferenceable(16) ptr @_ZNKSt6vectorIN7dropbox6oxygen2nnISt10shared_ptrIN5osgeo4proj8metadata16GeographicExtentEEEESaIS9_EEixEm(ptr noundef nonnull align 8 dereferenceable(24) %0, i64 noundef %1) #0 comdat align 2 {
  %3 = alloca ptr, align 8
  %4 = alloca i64, align 8
  store ptr %0, ptr %3, align 8, !tbaa !445
  store i64 %1, ptr %4, align 8, !tbaa !60
  %5 = load ptr, ptr %3, align 8
  %6 = getelementptr inbounds nuw %"struct.std::_Vector_base.616", ptr %5, i32 0, i32 0
  %7 = getelementptr inbounds nuw %"struct.std::_Vector_base<dropbox::oxygen::nn<std::shared_ptr<osgeo::proj::metadata::GeographicExtent>>, std::allocator<dropbox::oxygen::nn<std::shared_ptr<osgeo::proj::metadata::GeographicExtent>>>>::_Vector_impl_data", ptr %6, i32 0, i32 0
  %8 = load ptr, ptr %7, align 8, !tbaa !895
  %9 = load i64, ptr %4, align 8, !tbaa !60
  %10 = getelementptr inbounds nuw %"class.dropbox::oxygen::nn.620", ptr %8, i64 %9
  ret ptr %10
}

; Function Attrs: mustprogress nounwind uwtable
define linkonce_odr hidden noundef zeroext i1 @_ZNKSt6vectorIN7dropbox6oxygen2nnISt10shared_ptrIN5osgeo4proj8metadata16GeographicExtentEEEESaIS9_EE5emptyEv(ptr noundef nonnull align 8 dereferenceable(24) %0) #0 comdat align 2 {
  %2 = alloca ptr, align 8
  %3 = alloca %"class.__gnu_cxx::__normal_iterator.640", align 8
  %4 = alloca %"class.__gnu_cxx::__normal_iterator.640", align 8
  store ptr %0, ptr %2, align 8, !tbaa !445
  %5 = load ptr, ptr %2, align 8
  call void @llvm.lifetime.start.p0(i64 8, ptr %3) #25
  %6 = call ptr @_ZNKSt6vectorIN7dropbox6oxygen2nnISt10shared_ptrIN5osgeo4proj8metadata16GeographicExtentEEEESaIS9_EE5beginEv(ptr noundef nonnull align 8 dereferenceable(24) %5) #25
  %7 = getelementptr inbounds nuw %"class.__gnu_cxx::__normal_iterator.640", ptr %3, i32 0, i32 0
  store ptr %6, ptr %7, align 8
  call void @llvm.lifetime.start.p0(i64 8, ptr %4) #25
  %8 = call ptr @_ZNKSt6vectorIN7dropbox6oxygen2nnISt10shared_ptrIN5osgeo4proj8metadata16GeographicExtentEEEESaIS9_EE3endEv(ptr noundef nonnull align 8 dereferenceable(24) %5) #25
  %9 = getelementptr inbounds nuw %"class.__gnu_cxx::__normal_iterator.640", ptr %4, i32 0, i32 0
  store ptr %8, ptr %9, align 8
  %10 = call noundef zeroext i1 @_ZN9__gnu_cxxeqIPKN7dropbox6oxygen2nnISt10shared_ptrIN5osgeo4proj8metadata16GeographicExtentEEEESt6vectorISA_SaISA_EEEEbRKNS_17__normal_iteratorIT_T0_EESL_(ptr noundef nonnull align 8 dereferenceable(8) %3, ptr noundef nonnull align 8 dereferenceable(8) %4) #25
  call void @llvm.lifetime.end.p0(i64 8, ptr %4) #25
  call void @llvm.lifetime.end.p0(i64 8, ptr %3) #25
  ret i1 %10
}

; Function Attrs: mustprogress nounwind uwtable
define linkonce_odr noundef ptr @_ZNKSt19__shared_ptr_accessIN5osgeo4proj8metadata6ExtentELN9__gnu_cxx12_Lock_policyE2ELb0ELb0EEptEv(ptr noundef nonnull align 1 dereferenceable(1) %0) #0 comdat align 2 {
  %2 = alloca ptr, align 8
  store ptr %0, ptr %2, align 8, !tbaa !449
  %3 = load ptr, ptr %2, align 8
  %4 = call noundef ptr @_ZNKSt19__shared_ptr_accessIN5osgeo4proj8metadata6ExtentELN9__gnu_cxx12_Lock_policyE2ELb0ELb0EE6_M_getEv(ptr noundef nonnull align 1 dereferenceable(1) %3) #25
  ret ptr %4
}

; Function Attrs: mustprogress nounwind uwtable
define linkonce_odr noundef zeroext i1 @_ZNKSt12__shared_ptrIN5osgeo4proj8metadata6ExtentELN9__gnu_cxx12_Lock_policyE2EEcvbEv(ptr noundef nonnull align 8 dereferenceable(16) %0) #0 comdat align 2 {
  %2 = alloca ptr, align 8
  store ptr %0, ptr %2, align 8, !tbaa !442
  %3 = load ptr, ptr %2, align 8
  %4 = getelementptr inbounds nuw %"class.std::__shared_ptr.3", ptr %3, i32 0, i32 0
  %5 = load ptr, ptr %4, align 8, !tbaa !444
  %6 = icmp ne ptr %5, null
  ret i1 %6
}

; Function Attrs: mustprogress uwtable
define internal noundef double @_ZN5osgeo4proj9operationL13getPseudoAreaERKSt10shared_ptrINS0_8metadata6ExtentEE(ptr noundef nonnull align 8 dereferenceable(16) %0) #2 personality ptr @__gxx_personality_v0 {
  %2 = alloca double, align 8
  %3 = alloca ptr, align 8
  %4 = alloca ptr, align 8
  %5 = alloca i32, align 4
  %6 = alloca ptr, align 8
  %7 = alloca double, align 8
  %8 = alloca double, align 8
  %9 = alloca double, align 8
  %10 = alloca double, align 8
  %11 = alloca %"class.osgeo::proj::common::Angle", align 8
  %12 = alloca %"class.osgeo::proj::common::Angle", align 8
  %13 = alloca ptr, align 8
  %14 = alloca i32, align 4
  store ptr %0, ptr %3, align 8, !tbaa !17
  %15 = load ptr, ptr %3, align 8, !tbaa !17
  %16 = call noundef zeroext i1 @_ZNKSt12__shared_ptrIN5osgeo4proj8metadata6ExtentELN9__gnu_cxx12_Lock_policyE2EEcvbEv(ptr noundef nonnull align 8 dereferenceable(16) %15) #25
  br i1 %16, label %18, label %17

17:                                               ; preds = %1
  store double 0.000000e+00, ptr %2, align 8
  br label %72

18:                                               ; preds = %1
  call void @llvm.lifetime.start.p0(i64 8, ptr %4) #25
  %19 = load ptr, ptr %3, align 8, !tbaa !17
  %20 = call noundef ptr @_ZNKSt19__shared_ptr_accessIN5osgeo4proj8metadata6ExtentELN9__gnu_cxx12_Lock_policyE2ELb0ELb0EEptEv(ptr noundef nonnull align 1 dereferenceable(1) %19) #25
  %21 = call noundef nonnull align 8 dereferenceable(24) ptr @_ZNK5osgeo4proj8metadata6Extent18geographicElementsEv(ptr noundef nonnull align 8 dereferenceable(32) %20) #10
  store ptr %21, ptr %4, align 8, !tbaa !445
  %22 = load ptr, ptr %4, align 8, !tbaa !445
  %23 = call noundef zeroext i1 @_ZNKSt6vectorIN7dropbox6oxygen2nnISt10shared_ptrIN5osgeo4proj8metadata16GeographicExtentEEEESaIS9_EE5emptyEv(ptr noundef nonnull align 8 dereferenceable(24) %22) #25
  br i1 %23, label %24, label %25

24:                                               ; preds = %18
  store double 0.000000e+00, ptr %2, align 8
  store i32 1, ptr %5, align 4
  br label %71

25:                                               ; preds = %18
  call void @llvm.lifetime.start.p0(i64 8, ptr %6) #25
  %26 = load ptr, ptr %4, align 8, !tbaa !445
  %27 = call noundef nonnull align 8 dereferenceable(16) ptr @_ZNKSt6vectorIN7dropbox6oxygen2nnISt10shared_ptrIN5osgeo4proj8metadata16GeographicExtentEEEESaIS9_EEixEm(ptr noundef nonnull align 8 dereferenceable(24) %26, i64 noundef 0) #25
  %28 = call noundef ptr @_ZNK7dropbox6oxygen2nnISt10shared_ptrIN5osgeo4proj8metadata16GeographicExtentEEE3getIS7_EEPS6_v(ptr noundef nonnull align 8 dereferenceable(16) %27)
  %29 = icmp eq ptr %28, null
  br i1 %29, label %32, label %30

30:                                               ; preds = %25
  %31 = call ptr @__dynamic_cast(ptr %28, ptr @_ZTIN5osgeo4proj8metadata16GeographicExtentE, ptr @_ZTIN5osgeo4proj8metadata21GeographicBoundingBoxE, i64 0) #25
  br label %33

32:                                               ; preds = %25
  br label %33

33:                                               ; preds = %32, %30
  %34 = phi ptr [ %31, %30 ], [ null, %32 ]
  store ptr %34, ptr %6, align 8, !tbaa !447
  %35 = load ptr, ptr %6, align 8, !tbaa !447
  %36 = icmp ne ptr %35, null
  br i1 %36, label %38, label %37

37:                                               ; preds = %33
  store double 0.000000e+00, ptr %2, align 8
  store i32 1, ptr %5, align 4
  br label %70

38:                                               ; preds = %33
  call void @llvm.lifetime.start.p0(i64 8, ptr %7) #25
  %39 = load ptr, ptr %6, align 8, !tbaa !447
  %40 = call noundef double @_ZNK5osgeo4proj8metadata21GeographicBoundingBox18westBoundLongitudeEv(ptr noundef nonnull align 8 dereferenceable(40) %39) #10
  store double %40, ptr %7, align 8, !tbaa !43
  call void @llvm.lifetime.start.p0(i64 8, ptr %8) #25
  %41 = load ptr, ptr %6, align 8, !tbaa !447
  %42 = call noundef double @_ZNK5osgeo4proj8metadata21GeographicBoundingBox18southBoundLatitudeEv(ptr noundef nonnull align 8 dereferenceable(40) %41) #10
  store double %42, ptr %8, align 8, !tbaa !43
  call void @llvm.lifetime.start.p0(i64 8, ptr %9) #25
  %43 = load ptr, ptr %6, align 8, !tbaa !447
  %44 = call noundef double @_ZNK5osgeo4proj8metadata21GeographicBoundingBox18eastBoundLongitudeEv(ptr noundef nonnull align 8 dereferenceable(40) %43) #10
  store double %44, ptr %9, align 8, !tbaa !43
  call void @llvm.lifetime.start.p0(i64 8, ptr %10) #25
  %45 = load ptr, ptr %6, align 8, !tbaa !447
  %46 = call noundef double @_ZNK5osgeo4proj8metadata21GeographicBoundingBox18northBoundLatitudeEv(ptr noundef nonnull align 8 dereferenceable(40) %45) #10
  store double %46, ptr %10, align 8, !tbaa !43
  %47 = load double, ptr %7, align 8, !tbaa !43
  %48 = load double, ptr %9, align 8, !tbaa !43
  %49 = fcmp ogt double %47, %48
  br i1 %49, label %50, label %53

50:                                               ; preds = %38
  %51 = load double, ptr %9, align 8, !tbaa !43
  %52 = fadd double %51, 3.600000e+02
  store double %52, ptr %9, align 8, !tbaa !43
  br label %53

53:                                               ; preds = %50, %38
  %54 = load double, ptr %9, align 8, !tbaa !43
  %55 = load double, ptr %7, align 8, !tbaa !43
  %56 = fsub double %54, %55
  call void @llvm.lifetime.start.p0(i64 24, ptr %11) #25
  %57 = load double, ptr %10, align 8, !tbaa !43
  call void @_ZN5osgeo4proj6common5AngleC1Ed(ptr noundef nonnull align 8 dereferenceable(24) %11, double noundef %57)
  %58 = call noundef double @_ZNK5osgeo4proj6common7Measure10getSIValueEv(ptr noundef nonnull align 8 dereferenceable(24) %11) #10
  %59 = call double @sin(double noundef %58) #25, !tbaa !341
  call void @llvm.lifetime.start.p0(i64 24, ptr %12) #25
  %60 = load double, ptr %8, align 8, !tbaa !43
  invoke void @_ZN5osgeo4proj6common5AngleC1Ed(ptr noundef nonnull align 8 dereferenceable(24) %12, double noundef %60)
          to label %61 unwind label %66

61:                                               ; preds = %53
  %62 = call noundef double @_ZNK5osgeo4proj6common7Measure10getSIValueEv(ptr noundef nonnull align 8 dereferenceable(24) %12) #10
  %63 = call double @sin(double noundef %62) #25, !tbaa !341
  %64 = fsub double %59, %63
  %65 = fmul double %56, %64
  store double %65, ptr %2, align 8
  call void @_ZN5osgeo4proj6common5AngleD1Ev(ptr noundef nonnull align 8 dereferenceable(24) %12) #25
  call void @llvm.lifetime.end.p0(i64 24, ptr %12) #25
  call void @_ZN5osgeo4proj6common5AngleD1Ev(ptr noundef nonnull align 8 dereferenceable(24) %11) #25
  call void @llvm.lifetime.end.p0(i64 24, ptr %11) #25
  store i32 1, ptr %5, align 4
  call void @llvm.lifetime.end.p0(i64 8, ptr %10) #25
  call void @llvm.lifetime.end.p0(i64 8, ptr %9) #25
  call void @llvm.lifetime.end.p0(i64 8, ptr %8) #25
  call void @llvm.lifetime.end.p0(i64 8, ptr %7) #25
  br label %70

66:                                               ; preds = %53
  %67 = landingpad { ptr, i32 }
          cleanup
  %68 = extractvalue { ptr, i32 } %67, 0
  store ptr %68, ptr %13, align 8
  %69 = extractvalue { ptr, i32 } %67, 1
  store i32 %69, ptr %14, align 4
  call void @llvm.lifetime.end.p0(i64 24, ptr %12) #25
  call void @_ZN5osgeo4proj6common5AngleD1Ev(ptr noundef nonnull align 8 dereferenceable(24) %11) #25
  call void @llvm.lifetime.end.p0(i64 24, ptr %11) #25
  call void @llvm.lifetime.end.p0(i64 8, ptr %10) #25
  call void @llvm.lifetime.end.p0(i64 8, ptr %9) #25
  call void @llvm.lifetime.end.p0(i64 8, ptr %8) #25
  call void @llvm.lifetime.end.p0(i64 8, ptr %7) #25
  call void @llvm.lifetime.end.p0(i64 8, ptr %6) #25
  call void @llvm.lifetime.end.p0(i64 8, ptr %4) #25
  br label %74

70:                                               ; preds = %61, %37
  call void @llvm.lifetime.end.p0(i64 8, ptr %6) #25
  br label %71

71:                                               ; preds = %70, %24
  call void @llvm.lifetime.end.p0(i64 8, ptr %4) #25
  br label %72

72:                                               ; preds = %71, %17
  %73 = load double, ptr %2, align 8
  ret double %73

74:                                               ; preds = %66
  %75 = load ptr, ptr %13, align 8
  %76 = load i32, ptr %14, align 4
  %77 = insertvalue { ptr, i32 } poison, ptr %75, 0
  %78 = insertvalue { ptr, i32 } %77, i32 %76, 1
  resume { ptr, i32 } %78
}