; Function Attrs: mustprogress uwtable
define internal fastcc noundef double @_ZN5osgeo4proj9operationL13getPseudoAreaERKSt10shared_ptrINS0_8metadata6ExtentEE(ptr readonly %.0.val) unnamed_addr #2 personality ptr @__gxx_personality_v0 {
  %1 = alloca %"class.osgeo::proj::common::Angle", align 8
  %2 = alloca %"class.osgeo::proj::common::Angle", align 8
  %.not2 = icmp eq ptr %.0.val, null
  br i1 %.not2, label %.thread, label %3

3:                                                ; preds = %0
  %4 = tail call noundef nonnull align 8 dereferenceable(24) ptr @_ZNK5osgeo4proj8metadata6Extent18geographicElementsEv(ptr noundef nonnull align 8 dereferenceable(32) %.0.val) #37
  %5 = load ptr, ptr %4, align 8, !tbaa !685
  %6 = getelementptr inbounds nuw i8, ptr %4, i64 8
  %7 = load ptr, ptr %6, align 8, !tbaa !685
  %8 = icmp eq ptr %5, %7
  br i1 %8, label %.thread, label %9

9:                                                ; preds = %3
  %10 = load ptr, ptr %5, align 8, !tbaa !687
  %11 = icmp eq ptr %10, null
  br i1 %11, label %.thread, label %12

12:                                               ; preds = %9
  %13 = tail call ptr @__dynamic_cast(ptr nonnull %10, ptr nonnull @_ZTIN5osgeo4proj8metadata16GeographicExtentE, ptr nonnull @_ZTIN5osgeo4proj8metadata21GeographicBoundingBoxE, i64 0) #32
  %.not = icmp eq ptr %13, null
  br i1 %.not, label %.thread, label %14

14:                                               ; preds = %12
  %15 = tail call noundef double @_ZNK5osgeo4proj8metadata21GeographicBoundingBox18westBoundLongitudeEv(ptr noundef nonnull align 8 dereferenceable(40) %13) #37
  %16 = tail call noundef double @_ZNK5osgeo4proj8metadata21GeographicBoundingBox18southBoundLatitudeEv(ptr noundef nonnull align 8 dereferenceable(40) %13) #37
  %17 = tail call noundef double @_ZNK5osgeo4proj8metadata21GeographicBoundingBox18eastBoundLongitudeEv(ptr noundef nonnull align 8 dereferenceable(40) %13) #37
  %18 = tail call noundef double @_ZNK5osgeo4proj8metadata21GeographicBoundingBox18northBoundLatitudeEv(ptr noundef nonnull align 8 dereferenceable(40) %13) #37
  call void @llvm.lifetime.start.p0(i64 24, ptr nonnull %1) #32
  call void @_ZN5osgeo4proj6common5AngleC1Ed(ptr noundef nonnull align 8 dereferenceable(24) %1, double noundef %18)
  %19 = call noundef double @_ZNK5osgeo4proj6common7Measure10getSIValueEv(ptr noundef nonnull align 8 dereferenceable(24) %1) #37
  %20 = call double @sin(double noundef %19) #32, !tbaa !23
  call void @llvm.lifetime.start.p0(i64 24, ptr nonnull %2) #32
  invoke void @_ZN5osgeo4proj6common5AngleC1Ed(ptr noundef nonnull align 8 dereferenceable(24) %2, double noundef %16)
          to label %21 unwind label %29

21:                                               ; preds = %14
  %22 = fcmp ogt double %15, %17
  %23 = fadd double %17, 3.600000e+02
  %.018 = select i1 %22, double %23, double %17
  %24 = fsub double %.018, %15
  %25 = call noundef double @_ZNK5osgeo4proj6common7Measure10getSIValueEv(ptr noundef nonnull align 8 dereferenceable(24) %2) #37
  %26 = call double @sin(double noundef %25) #32, !tbaa !23
  %27 = fsub double %20, %26
  %28 = fmul double %24, %27
  call void @_ZN5osgeo4proj6common5AngleD1Ev(ptr noundef nonnull align 8 dereferenceable(24) %2) #32
  call void @llvm.lifetime.end.p0(i64 24, ptr nonnull %2) #32
  call void @_ZN5osgeo4proj6common5AngleD1Ev(ptr noundef nonnull align 8 dereferenceable(24) %1) #32
  call void @llvm.lifetime.end.p0(i64 24, ptr nonnull %1) #32
  br label %.thread

29:                                               ; preds = %14
  %30 = landingpad { ptr, i32 }
          cleanup
  call void @llvm.lifetime.end.p0(i64 24, ptr nonnull %2) #32
  call void @_ZN5osgeo4proj6common5AngleD1Ev(ptr noundef nonnull align 8 dereferenceable(24) %1) #32
  call void @llvm.lifetime.end.p0(i64 24, ptr nonnull %1) #32
  resume { ptr, i32 } %30

.thread:                                          ; preds = %9, %3, %12, %21, %0
  %.0 = phi double [ 0.000000e+00, %0 ], [ 0.000000e+00, %3 ], [ %28, %21 ], [ 0.000000e+00, %12 ], [ 0.000000e+00, %9 ]
  ret double %.0
}